target datalayout = "e-m:e-p270:32:32-p271:32:32-p272:64:64-i64:64-i128:128-f80:128-n8:16:32:64-S128"
target triple = "x86_64-pc-linux-gnu"

@max_alloc_size = internal global i64 2147483647, align 8

; Function Attrs: nounwind uwtable
define noalias ptr @av_malloc(i64 noundef %0) #0 {
  %2 = alloca ptr, align 8
  %3 = alloca i64, align 8
  %4 = alloca ptr, align 8
  %5 = alloca i64, align 8
  %6 = alloca i32, align 4
  store i64 %0, ptr %3, align 8, !tbaa !4
  call void @llvm.lifetime.start.p0(i64 8, ptr %4) #11
  store ptr null, ptr %4, align 8, !tbaa !8
  %7 = load i64, ptr %3, align 8, !tbaa !4
  %8 = load atomic i64, ptr @max_alloc_size monotonic, align 8
  store i64 %8, ptr %5, align 8
  %9 = load i64, ptr %5, align 8, !tbaa !4
  %10 = icmp ugt i64 %7, %9
  br i1 %10, label %11, label %12

11:                                               ; preds = %1
  store ptr null, ptr %2, align 8
  store i32 1, ptr %6, align 4
  br label %31

12:                                               ; preds = %1
  %13 = load i64, ptr %3, align 8, !tbaa !4
  %14 = icmp ne i64 %13, 0
  br i1 %14, label %15, label %21

15:                                               ; preds = %12
  %16 = load i64, ptr %3, align 8, !tbaa !4
  %17 = call i32 @posix_memalign(ptr noundef %4, i64 noundef 16, i64 noundef %16) #11
  %18 = icmp ne i32 %17, 0
  br i1 %18, label %19, label %20

19:                                               ; preds = %15
  store ptr null, ptr %4, align 8, !tbaa !8
  br label %20

20:                                               ; preds = %19, %15
  br label %21

21:                                               ; preds = %20, %12
  %22 = load ptr, ptr %4, align 8, !tbaa !8
  %23 = icmp ne ptr %22, null
  br i1 %23, label %29, label %24

24:                                               ; preds = %21
  %25 = load i64, ptr %3, align 8, !tbaa !4
  %26 = icmp ne i64 %25, 0
  br i1 %26, label %29, label %27

27:                                               ; preds = %24
  store i64 1, ptr %3, align 8, !tbaa !4
  %28 = call noalias ptr @av_malloc(i64 noundef 1)
  store ptr %28, ptr %4, align 8, !tbaa !8
  br label %29

29:                                               ; preds = %27, %24, %21
  %30 = load ptr, ptr %4, align 8, !tbaa !8
  store ptr %30, ptr %2, align 8
  store i32 1, ptr %6, align 4
  br label %31

31:                                               ; preds = %29, %11
  call void @llvm.lifetime.end.p0(i64 8, ptr %4) #11
  %32 = load ptr, ptr %2, align 8
  ret ptr %32
}

; Function Attrs: nounwind uwtable
define ptr @av_memdup(ptr noundef %0, i64 noundef %1) #0 {
  %3 = alloca ptr, align 8
  %4 = alloca i64, align 8
  %5 = alloca ptr, align 8
  store ptr %0, ptr %3, align 8, !tbaa !8
  store i64 %1, ptr %4, align 8, !tbaa !4
  call void @llvm.lifetime.start.p0(i64 8, ptr %5) #11
  store ptr null, ptr %5, align 8, !tbaa !8
  %6 = load ptr, ptr %3, align 8, !tbaa !8
  %7 = icmp ne ptr %6, null
  br i1 %7, label %8, label %18

8:                                                ; preds = %2
  %9 = load i64, ptr %4, align 8, !tbaa !4
  %10 = call noalias ptr @av_malloc(i64 noundef %9)
  store ptr %10, ptr %5, align 8, !tbaa !8
  %11 = load ptr, ptr %5, align 8, !tbaa !8
  %12 = icmp ne ptr %11, null
  br i1 %12, label %13, label %17

13:                                               ; preds = %8
  %14 = load ptr, ptr %5, align 8, !tbaa !8
  %15 = load ptr, ptr %3, align 8, !tbaa !8
  %16 = load i64, ptr %4, align 8, !tbaa !4
  call void @llvm.memcpy.p0.p0.i64(ptr align 1 %14, ptr align 1 %15, i64 %16, i1 false)
  br label %17

17:                                               ; preds = %13, %8
  br label %18

18:                                               ; preds = %17, %2
  %19 = load ptr, ptr %5, align 8, !tbaa !8
  call void @llvm.lifetime.end.p0(i64 8, ptr %5) #11
  ret ptr %19
}