; Function Attrs: nofree nounwind uwtable
define ptr @av_memdup(ptr noundef readonly captures(address_is_null) %0, i64 noundef %1) local_unnamed_addr #1 {
  %3 = alloca ptr, align 8
  %4 = alloca ptr, align 8
  %.not = icmp eq ptr %0, null
  br i1 %.not, label %17, label %5

5:                                                ; preds = %2
  call void @llvm.lifetime.start.p0(i64 8, ptr nonnull %4) #21
  store ptr null, ptr %4, align 8, !tbaa !4
  %6 = load atomic i64, ptr @max_alloc_size monotonic, align 8
  %7 = icmp ugt i64 %1, %6
  br i1 %7, label %av_malloc.exit.thread, label %8

8:                                                ; preds = %5
  %.not8.i = icmp eq i64 %1, 0
  br i1 %.not8.i, label %11, label %9

9:                                                ; preds = %8
  %10 = call i32 @posix_memalign(ptr noundef nonnull %4, i64 noundef 16, i64 noundef %1) #21
  %.not.i = icmp eq i32 %10, 0
  %.pre11.i = load ptr, ptr %4, align 8
  br i1 %.not.i, label %av_malloc.exit, label %av_malloc.exit.thread

11:                                               ; preds = %8
  call void @llvm.lifetime.start.p0(i64 8, ptr nonnull %3) #21
  store ptr null, ptr %3, align 8, !tbaa !4
  %12 = load atomic i64, ptr @max_alloc_size monotonic, align 8
  %13 = icmp eq i64 %12, 0
  br i1 %13, label %av_malloc.exit.i, label %14

14:                                               ; preds = %11
  %15 = call i32 @posix_memalign(ptr noundef nonnull %3, i64 noundef 16, i64 noundef 1) #21
  %.not.i.i = icmp eq i32 %15, 0
  %.pre.i = load ptr, ptr %3, align 8
  %spec.select12.i = select i1 %.not.i.i, ptr %.pre.i, ptr null
  br label %av_malloc.exit.i

av_malloc.exit.i:                                 ; preds = %14, %11
  %.0.i.i = phi ptr [ null, %11 ], [ %spec.select12.i, %14 ]
  call void @llvm.lifetime.end.p0(i64 8, ptr nonnull %3) #21
  br label %av_malloc.exit

av_malloc.exit.thread:                            ; preds = %5, %9
  call void @llvm.lifetime.end.p0(i64 8, ptr nonnull %4) #21
  br label %17

av_malloc.exit:                                   ; preds = %9, %av_malloc.exit.i
  %.0.i = phi ptr [ %.0.i.i, %av_malloc.exit.i ], [ %.pre11.i, %9 ]
  call void @llvm.lifetime.end.p0(i64 8, ptr nonnull %4) #21
  %.not8 = icmp eq ptr %.0.i, null
  br i1 %.not8, label %17, label %16

16:                                               ; preds = %av_malloc.exit
  call void @llvm.memcpy.p0.p0.i64(ptr nonnull align 1 %.0.i, ptr nonnull align 1 %0, i64 %1, i1 false)
  br label %17

17:                                               ; preds = %av_malloc.exit.thread, %av_malloc.exit, %16, %2
  %.0 = phi ptr [ %.0.i, %16 ], [ null, %av_malloc.exit ], [ null, %2 ], [ null, %av_malloc.exit.thread ]
  ret ptr %.0
}